target datalayout = "e-m:e-p270:32:32-p271:32:32-p272:64:64-i64:64-i128:128-f80:128-n8:16:32:64-S128"
target triple = "x86_64-pc-linux-gnu"

%struct.quic_conn_st = type { %struct.quic_obj_st, ptr, ptr, ptr, ptr, ptr, ptr, ptr, ptr, %union.bio_addr_st, %struct.quic_thread_assist_st, i64, i16, i32, i32, i64, i32, i64, i32 }
%struct.quic_obj_st = type { %struct.ssl_st, ptr, ptr, ptr, ptr, ptr, i64, i8 }
%struct.ssl_st = type { i32, ptr, ptr, ptr, %struct.CRYPTO_REF_COUNT, ptr, %struct.crypto_ex_data_st }
%struct.CRYPTO_REF_COUNT = type { i32 }
%struct.crypto_ex_data_st = type { ptr, ptr }
%union.bio_addr_st = type { %struct.sockaddr_in6, [84 x i8] }
%struct.sockaddr_in6 = type { i16, i16, i32, %struct.in6_addr, i32 }
%struct.in6_addr = type { %union.anon }
%union.anon = type { [4 x i32] }
%struct.quic_thread_assist_st = type { ptr, ptr, ptr, i32, i32 }
%struct.OSSL_TIME = type { i64 }
%struct.qctx_st = type { ptr, ptr, ptr, ptr, ptr, i32, i32, i32, i32 }
%struct.quic_xso_st = type { %struct.quic_obj_st, ptr, ptr, i8, ptr, i64, i64, i32, i64, i32 }
%struct.ossl_rtt_info_st = type { %struct.OSSL_TIME, %struct.OSSL_TIME, %struct.OSSL_TIME, %struct.OSSL_TIME }
%struct.wait_for_incoming_stream_args = type { ptr, ptr }

@.str = private unnamed_addr constant [32 x i8] c"../openssl/ssl/quic/quic_impl.c\00", align 1
@__func__.ossl_quic_accept_stream = private unnamed_addr constant [24 x i8] c"ossl_quic_accept_stream\00", align 1

; Function Attrs: nounwind uwtable
define internal void @qc_update_reject_policy(ptr noundef %0) #0 {
  %2 = alloca ptr, align 8
  %3 = alloca i32, align 4
  %4 = alloca i32, align 4
  store ptr %0, ptr %2, align 8, !tbaa !8
  call void @llvm.lifetime.start.p0(i64 4, ptr %3) #10
  %5 = load ptr, ptr %2, align 8, !tbaa !8
  %6 = call i32 @qc_get_effective_incoming_stream_policy(ptr noundef %5)
  store i32 %6, ptr %3, align 4, !tbaa !122
  call void @llvm.lifetime.start.p0(i64 4, ptr %4) #10
  %7 = load i32, ptr %3, align 4, !tbaa !122
  %8 = icmp eq i32 %7, 2
  %9 = zext i1 %8 to i32
  store i32 %9, ptr %4, align 4, !tbaa !122
  %10 = load ptr, ptr %2, align 8, !tbaa !8
  %11 = getelementptr inbounds nuw %struct.quic_conn_st, ptr %10, i32 0, i32 6
  %12 = load ptr, ptr %11, align 8, !tbaa !106
  %13 = load i32, ptr %4, align 4, !tbaa !122
  %14 = load ptr, ptr %2, align 8, !tbaa !8
  %15 = getelementptr inbounds nuw %struct.quic_conn_st, ptr %14, i32 0, i32 17
  %16 = load i64, ptr %15, align 8, !tbaa !134
  call void @ossl_quic_channel_set_incoming_stream_auto_reject(ptr noundef %12, i32 noundef %13, i64 noundef %16)
  call void @llvm.lifetime.end.p0(i64 4, ptr %4) #10
  call void @llvm.lifetime.end.p0(i64 4, ptr %3) #10
  ret void
}

; Function Attrs: inlinehint nounwind uwtable
define internal ptr @ossl_quic_obj_get0_engine(ptr noundef %0) #3 {
  %2 = alloca ptr, align 8
  store ptr %0, ptr %2, align 8, !tbaa !172
  %3 = load ptr, ptr %2, align 8, !tbaa !172
  %4 = getelementptr inbounds nuw %struct.quic_obj_st, ptr %3, i32 0, i32 4
  %5 = load ptr, ptr %4, align 8, !tbaa !168
  ret ptr %5
}

; Function Attrs: inlinehint nounwind uwtable
define internal ptr @ossl_quic_obj_get0_mutex(ptr noundef %0) #3 {
  %2 = alloca ptr, align 8
  store ptr %0, ptr %2, align 8, !tbaa !172
  %3 = load ptr, ptr %2, align 8, !tbaa !172
  %4 = call ptr @ossl_quic_obj_get0_engine(ptr noundef %3)
  %5 = call ptr @ossl_quic_engine_get0_mutex(ptr noundef %4)
  ret ptr %5
}

; Function Attrs: nounwind uwtable
define internal void @qctx_unlock(ptr noundef %0) #0 {
  %2 = alloca ptr, align 8
  store ptr %0, ptr %2, align 8, !tbaa !119
  %3 = load ptr, ptr %2, align 8, !tbaa !119
  %4 = getelementptr inbounds nuw %struct.qctx_st, ptr %3, i32 0, i32 0
  %5 = load ptr, ptr %4, align 8, !tbaa !166
  %6 = call ptr @ossl_quic_obj_get0_mutex(ptr noundef %5)
  call void @ossl_crypto_mutex_unlock(ptr noundef %6)
  ret void
}

; Function Attrs: nounwind uwtable
define internal void @qc_touch_default_xso(ptr noundef %0) #0 {
  %2 = alloca ptr, align 8
  store ptr %0, ptr %2, align 8, !tbaa !8
  %3 = load ptr, ptr %2, align 8, !tbaa !8
  %4 = getelementptr inbounds nuw %struct.quic_conn_st, ptr %3, i32 0, i32 12
  %5 = load i16, ptr %4, align 8
  %6 = and i16 %5, -17
  %7 = or i16 %6, 16
  store i16 %7, ptr %4, align 8
  %8 = load ptr, ptr %2, align 8, !tbaa !8
  call void @qc_update_reject_policy(ptr noundef %8)
  ret void
}

; Function Attrs: nounwind uwtable
define internal i32 @block_until_pred(ptr noundef %0, ptr noundef %1, ptr noundef %2, i32 noundef %3) #0 {
  %5 = alloca ptr, align 8
  %6 = alloca ptr, align 8
  %7 = alloca ptr, align 8
  %8 = alloca i32, align 4
  %9 = alloca ptr, align 8
  %10 = alloca ptr, align 8
  store ptr %0, ptr %5, align 8, !tbaa !119
  store ptr %1, ptr %6, align 8, !tbaa !167
  store ptr %2, ptr %7, align 8, !tbaa !167
  store i32 %3, ptr %8, align 4, !tbaa !122
  call void @llvm.lifetime.start.p0(i64 8, ptr %9) #10
  call void @llvm.lifetime.start.p0(i64 8, ptr %10) #10
  %11 = load ptr, ptr %5, align 8, !tbaa !119
  %12 = getelementptr inbounds nuw %struct.qctx_st, ptr %11, i32 0, i32 0
  %13 = load ptr, ptr %12, align 8, !tbaa !166
  %14 = call ptr @ossl_quic_obj_get0_engine(ptr noundef %13)
  store ptr %14, ptr %9, align 8, !tbaa !198
  %15 = load ptr, ptr %9, align 8, !tbaa !198
  call void @ossl_quic_engine_set_inhibit_tick(ptr noundef %15, i32 noundef 0)
  %16 = load ptr, ptr %9, align 8, !tbaa !198
  %17 = call ptr @ossl_quic_engine_get0_reactor(ptr noundef %16)
  store ptr %17, ptr %10, align 8, !tbaa !181
  %18 = load ptr, ptr %10, align 8, !tbaa !181
  %19 = load ptr, ptr %6, align 8, !tbaa !167
  %20 = load ptr, ptr %7, align 8, !tbaa !167
  %21 = load i32, ptr %8, align 4, !tbaa !122
  %22 = call i32 @ossl_quic_reactor_block_until_pred(ptr noundef %18, ptr noundef %19, ptr noundef %20, i32 noundef %21)
  call void @llvm.lifetime.end.p0(i64 8, ptr %10) #10
  call void @llvm.lifetime.end.p0(i64 8, ptr %9) #10
  ret i32 %22
}

; Function Attrs: nounwind uwtable
define internal i32 @qctx_blocking(ptr noundef %0) #0 {
  %2 = alloca ptr, align 8
  store ptr %0, ptr %2, align 8, !tbaa !119
  %3 = load ptr, ptr %2, align 8, !tbaa !119
  %4 = getelementptr inbounds nuw %struct.qctx_st, ptr %3, i32 0, i32 0
  %5 = load ptr, ptr %4, align 8, !tbaa !166
  %6 = call i32 @ossl_quic_obj_blocking(ptr noundef %5)
  ret i32 %6
}

; Function Attrs: nounwind uwtable
define internal i32 @qc_get_effective_incoming_stream_policy(ptr noundef %0) #0 {
  %2 = alloca i32, align 4
  %3 = alloca ptr, align 8
  store ptr %0, ptr %3, align 8, !tbaa !8
  %4 = load ptr, ptr %3, align 8, !tbaa !8
  %5 = getelementptr inbounds nuw %struct.quic_conn_st, ptr %4, i32 0, i32 16
  %6 = load i32, ptr %5, align 8, !tbaa !117
  switch i32 %6, label %27 [
    i32 0, label %7
  ]

7:                                                ; preds = %1
  %8 = load ptr, ptr %3, align 8, !tbaa !8
  %9 = getelementptr inbounds nuw %struct.quic_conn_st, ptr %8, i32 0, i32 8
  %10 = load ptr, ptr %9, align 8, !tbaa !155
  %11 = icmp eq ptr %10, null
  br i1 %11, label %12, label %20

12:                                               ; preds = %7
  %13 = load ptr, ptr %3, align 8, !tbaa !8
  %14 = getelementptr inbounds nuw %struct.quic_conn_st, ptr %13, i32 0, i32 12
  %15 = load i16, ptr %14, align 8
  %16 = lshr i16 %15, 4
  %17 = and i16 %16, 1
  %18 = zext i16 %17 to i32
  %19 = icmp ne i32 %18, 0
  br i1 %19, label %20, label %25

20:                                               ; preds = %12, %7
  %21 = load ptr, ptr %3, align 8, !tbaa !8
  %22 = getelementptr inbounds nuw %struct.quic_conn_st, ptr %21, i32 0, i32 13
  %23 = load i32, ptr %22, align 4, !tbaa !111
  %24 = icmp eq i32 %23, 0
  br i1 %24, label %25, label %26

25:                                               ; preds = %20, %12
  store i32 1, ptr %2, align 4
  br label %31

26:                                               ; preds = %20
  store i32 2, ptr %2, align 4
  br label %31

27:                                               ; preds = %1
  %28 = load ptr, ptr %3, align 8, !tbaa !8
  %29 = getelementptr inbounds nuw %struct.quic_conn_st, ptr %28, i32 0, i32 16
  %30 = load i32, ptr %29, align 8, !tbaa !117
  store i32 %30, ptr %2, align 4
  br label %31

31:                                               ; preds = %27, %26, %25
  %32 = load i32, ptr %2, align 4
  ret i32 %32
}

; Function Attrs: nounwind uwtable
define internal void @qctx_lock(ptr noundef %0) #0 {
  %2 = alloca ptr, align 8
  store ptr %0, ptr %2, align 8, !tbaa !119
  %3 = load ptr, ptr %2, align 8, !tbaa !119
  %4 = getelementptr inbounds nuw %struct.qctx_st, ptr %3, i32 0, i32 0
  %5 = load ptr, ptr %4, align 8, !tbaa !166
  %6 = call ptr @ossl_quic_obj_get0_mutex(ptr noundef %5)
  call void @ossl_crypto_mutex_lock(ptr noundef %6)
  ret void
}

; Function Attrs: nounwind uwtable
define internal i32 @expect_quic_conn_only(ptr noundef %0, ptr noundef %1) #0 {
  %3 = alloca ptr, align 8
  %4 = alloca ptr, align 8
  store ptr %0, ptr %3, align 8, !tbaa !136
  store ptr %1, ptr %4, align 8, !tbaa !119
  %5 = load ptr, ptr %3, align 8, !tbaa !136
  %6 = load ptr, ptr %4, align 8, !tbaa !119
  %7 = call i32 @expect_quic_as(ptr noundef %5, ptr noundef %6, i32 noundef 1)
  ret i32 %7
}

; Function Attrs: nounwind uwtable
define ptr @ossl_quic_accept_stream(ptr noundef %0, i64 noundef %1) #0 {
  %3 = alloca ptr, align 8
  %4 = alloca ptr, align 8
  %5 = alloca i64, align 8
  %6 = alloca %struct.qctx_st, align 8
  %7 = alloca i32, align 4
  %8 = alloca ptr, align 8
  %9 = alloca ptr, align 8
  %10 = alloca ptr, align 8
  %11 = alloca ptr, align 8
  %12 = alloca %struct.ossl_rtt_info_st, align 8
  %13 = alloca i32, align 4
  %14 = alloca %struct.wait_for_incoming_stream_args, align 8
  store ptr %0, ptr %4, align 8, !tbaa !136
  store i64 %1, ptr %5, align 8, !tbaa !169
  call void @llvm.lifetime.start.p0(i64 56, ptr %6) #10
  call void @llvm.lifetime.start.p0(i64 4, ptr %7) #10
  call void @llvm.lifetime.start.p0(i64 8, ptr %8) #10
  store ptr null, ptr %8, align 8, !tbaa !136
  call void @llvm.lifetime.start.p0(i64 8, ptr %9) #10
  call void @llvm.lifetime.start.p0(i64 8, ptr %10) #10
  call void @llvm.lifetime.start.p0(i64 8, ptr %11) #10
  call void @llvm.lifetime.start.p0(i64 32, ptr %12) #10
  %15 = load ptr, ptr %4, align 8, !tbaa !136
  %16 = call i32 @expect_quic_conn_only(ptr noundef %15, ptr noundef %6)
  %17 = icmp ne i32 %16, 0
  br i1 %17, label %19, label %18

18:                                               ; preds = %2
  store ptr null, ptr %3, align 8
  store i32 1, ptr %13, align 4
  br label %94

19:                                               ; preds = %2
  call void @qctx_lock(ptr noundef %6)
  %20 = getelementptr inbounds nuw %struct.qctx_st, ptr %6, i32 0, i32 3
  %21 = load ptr, ptr %20, align 8, !tbaa !123
  %22 = call i32 @qc_get_effective_incoming_stream_policy(ptr noundef %21)
  %23 = icmp eq i32 %22, 2
  br i1 %23, label %24, label %26

24:                                               ; preds = %19
  %25 = call i32 (ptr, ptr, i32, ptr, i32, ptr, ...) @quic_raise_non_normal_error(ptr noundef %6, ptr noundef @.str, i32 noundef 3838, ptr noundef @__func__.ossl_quic_accept_stream, i32 noundef 786689, ptr noundef null)
  br label %92

26:                                               ; preds = %19
  %27 = getelementptr inbounds nuw %struct.qctx_st, ptr %6, i32 0, i32 3
  %28 = load ptr, ptr %27, align 8, !tbaa !123
  %29 = getelementptr inbounds nuw %struct.quic_conn_st, ptr %28, i32 0, i32 6
  %30 = load ptr, ptr %29, align 8, !tbaa !106
  %31 = call ptr @ossl_quic_channel_get_qsm(ptr noundef %30)
  store ptr %31, ptr %9, align 8, !tbaa !196
  %32 = load ptr, ptr %9, align 8, !tbaa !196
  %33 = call ptr @ossl_quic_stream_map_peek_accept_queue(ptr noundef %32)
  store ptr %33, ptr %10, align 8, !tbaa !204
  %34 = load ptr, ptr %10, align 8, !tbaa !204
  %35 = icmp eq ptr %34, null
  br i1 %35, label %36, label %68

36:                                               ; preds = %26
  %37 = call i32 @qctx_blocking(ptr noundef %6)
  %38 = icmp ne i32 %37, 0
  br i1 %38, label %39, label %66

39:                                               ; preds = %36
  %40 = load i64, ptr %5, align 8, !tbaa !169
  %41 = and i64 %40, 1
  %42 = icmp eq i64 %41, 0
  br i1 %42, label %43, label %66

43:                                               ; preds = %39
  call void @llvm.lifetime.start.p0(i64 16, ptr %14) #10
  %44 = getelementptr inbounds nuw %struct.wait_for_incoming_stream_args, ptr %14, i32 0, i32 0
  store ptr %6, ptr %44, align 8, !tbaa !236
  %45 = getelementptr inbounds nuw %struct.wait_for_incoming_stream_args, ptr %14, i32 0, i32 1
  store ptr null, ptr %45, align 8, !tbaa !238
  %46 = call i32 @block_until_pred(ptr noundef %6, ptr noundef @wait_for_incoming_stream, ptr noundef %14, i32 noundef 0)
  store i32 %46, ptr %7, align 4, !tbaa !122
  %47 = load i32, ptr %7, align 4, !tbaa !122
  %48 = icmp eq i32 %47, 0
  br i1 %48, label %49, label %51

49:                                               ; preds = %43
  %50 = call i32 (ptr, ptr, i32, ptr, i32, ptr, ...) @quic_raise_non_normal_error(ptr noundef %6, ptr noundef @.str, i32 noundef 3855, ptr noundef @__func__.ossl_quic_accept_stream, i32 noundef 786691, ptr noundef null)
  store i32 2, ptr %13, align 4
  br label %63

51:                                               ; preds = %43
  %52 = load i32, ptr %7, align 4, !tbaa !122
  %53 = icmp slt i32 %52, 0
  br i1 %53, label %58, label %54

54:                                               ; preds = %51
  %55 = getelementptr inbounds nuw %struct.wait_for_incoming_stream_args, ptr %14, i32 0, i32 1
  %56 = load ptr, ptr %55, align 8, !tbaa !238
  %57 = icmp eq ptr %56, null
  br i1 %57, label %58, label %59

58:                                               ; preds = %54, %51
  store i32 2, ptr %13, align 4
  br label %63

59:                                               ; preds = %54
  br label %60

60:                                               ; preds = %59
  %61 = getelementptr inbounds nuw %struct.wait_for_incoming_stream_args, ptr %14, i32 0, i32 1
  %62 = load ptr, ptr %61, align 8, !tbaa !238
  store ptr %62, ptr %10, align 8, !tbaa !204
  store i32 0, ptr %13, align 4
  br label %63

63:                                               ; preds = %58, %49, %60
  call void @llvm.lifetime.end.p0(i64 16, ptr %14) #10
  %64 = load i32, ptr %13, align 4
  switch i32 %64, label %94 [
    i32 0, label %65
    i32 2, label %92
  ]

65:                                               ; preds = %63
  br label %67

66:                                               ; preds = %39, %36
  br label %92

67:                                               ; preds = %65
  br label %68

68:                                               ; preds = %67, %26
  %69 = getelementptr inbounds nuw %struct.qctx_st, ptr %6, i32 0, i32 3
  %70 = load ptr, ptr %69, align 8, !tbaa !123
  %71 = load ptr, ptr %10, align 8, !tbaa !204
  %72 = call ptr @create_xso_from_stream(ptr noundef %70, ptr noundef %71)
  store ptr %72, ptr %11, align 8, !tbaa !156
  %73 = load ptr, ptr %11, align 8, !tbaa !156
  %74 = icmp eq ptr %73, null
  br i1 %74, label %75, label %76

75:                                               ; preds = %68
  br label %92

76:                                               ; preds = %68
  %77 = getelementptr inbounds nuw %struct.qctx_st, ptr %6, i32 0, i32 3
  %78 = load ptr, ptr %77, align 8, !tbaa !123
  %79 = getelementptr inbounds nuw %struct.quic_conn_st, ptr %78, i32 0, i32 6
  %80 = load ptr, ptr %79, align 8, !tbaa !106
  %81 = call ptr @ossl_quic_channel_get_statm(ptr noundef %80)
  call void @ossl_statm_get_rtt_info(ptr noundef %81, ptr noundef %12)
  %82 = load ptr, ptr %9, align 8, !tbaa !196
  %83 = load ptr, ptr %10, align 8, !tbaa !204
  %84 = getelementptr inbounds nuw %struct.ossl_rtt_info_st, ptr %12, i32 0, i32 0
  %85 = getelementptr inbounds nuw %struct.OSSL_TIME, ptr %84, i32 0, i32 0
  %86 = load i64, ptr %85, align 8
  call void @ossl_quic_stream_map_remove_from_accept_queue(ptr noundef %82, ptr noundef %83, i64 %86)
  %87 = load ptr, ptr %11, align 8, !tbaa !156
  %88 = getelementptr inbounds nuw %struct.quic_xso_st, ptr %87, i32 0, i32 0
  %89 = getelementptr inbounds nuw %struct.quic_obj_st, ptr %88, i32 0, i32 0
  store ptr %89, ptr %8, align 8, !tbaa !136
  %90 = getelementptr inbounds nuw %struct.qctx_st, ptr %6, i32 0, i32 3
  %91 = load ptr, ptr %90, align 8, !tbaa !123
  call void @qc_touch_default_xso(ptr noundef %91)
  br label %92

92:                                               ; preds = %76, %63, %75, %66, %24
  call void @qctx_unlock(ptr noundef %6)
  %93 = load ptr, ptr %8, align 8, !tbaa !136
  store ptr %93, ptr %3, align 8
  store i32 1, ptr %13, align 4
  br label %94

94:                                               ; preds = %92, %63, %18
  call void @llvm.lifetime.end.p0(i64 32, ptr %12) #10
  call void @llvm.lifetime.end.p0(i64 8, ptr %11) #10
  call void @llvm.lifetime.end.p0(i64 8, ptr %10) #10
  call void @llvm.lifetime.end.p0(i64 8, ptr %9) #10
  call void @llvm.lifetime.end.p0(i64 8, ptr %8) #10
  call void @llvm.lifetime.end.p0(i64 4, ptr %7) #10
  call void @llvm.lifetime.end.p0(i64 56, ptr %6) #10
  %95 = load ptr, ptr %3, align 8
  ret ptr %95
}