; Function Attrs: nounwind uwtable
define ptr @ossl_quic_accept_stream(ptr noundef %0, i64 noundef %1) local_unnamed_addr #0 {
  %3 = alloca %struct.qctx_st, align 8
  %4 = alloca %struct.ossl_rtt_info_st, align 8
  %5 = alloca %struct.wait_for_incoming_stream_args, align 8
  call void @llvm.lifetime.start.p0(i64 56, ptr nonnull %3) #12
  call void @llvm.lifetime.start.p0(i64 32, ptr nonnull %4) #12
  %6 = call fastcc range(i32 0, 2) i32 @expect_quic_as(ptr noundef %0, ptr noundef nonnull %3, i32 noundef 1)
  %.not = icmp eq i32 %6, 0
  br i1 %.not, label %76, label %7

7:                                                ; preds = %2
  %.val = load ptr, ptr %3, align 8, !tbaa !157
  %8 = getelementptr i8, ptr %.val, i64 88
  %.val.val = load ptr, ptr %8, align 8, !tbaa !143
  %9 = call ptr @ossl_quic_engine_get0_mutex(ptr noundef %.val.val) #12
  call void @ossl_crypto_mutex_lock(ptr noundef %9) #12
  %10 = getelementptr inbounds nuw i8, ptr %3, i64 24
  %11 = load ptr, ptr %10, align 8, !tbaa !134
  %12 = getelementptr inbounds nuw i8, ptr %11, i64 360
  %13 = load i32, ptr %12, align 8, !tbaa !122
  switch i32 %13, label %qc_get_effective_incoming_stream_policy.exit.thread [
    i32 0, label %14
    i32 2, label %qc_get_effective_incoming_stream_policy.exit.thread32
  ]

14:                                               ; preds = %7
  %15 = getelementptr inbounds nuw i8, ptr %11, i64 176
  %16 = load ptr, ptr %15, align 8, !tbaa !124
  %17 = icmp eq ptr %16, null
  br i1 %17, label %18, label %22

18:                                               ; preds = %14
  %19 = getelementptr inbounds nuw i8, ptr %11, i64 336
  %20 = load i16, ptr %19, align 8
  %21 = and i16 %20, 16
  %.not.i = icmp eq i16 %21, 0
  br i1 %.not.i, label %qc_get_effective_incoming_stream_policy.exit.thread, label %22

22:                                               ; preds = %18, %14
  %23 = getelementptr inbounds nuw i8, ptr %11, i64 340
  %24 = load i32, ptr %23, align 4, !tbaa !116
  %25 = icmp eq i32 %24, 0
  br i1 %25, label %qc_get_effective_incoming_stream_policy.exit.thread, label %qc_get_effective_incoming_stream_policy.exit.thread32

qc_get_effective_incoming_stream_policy.exit.thread32: ; preds = %7, %22
  call void (ptr, ptr, i32, ptr, i32, ptr, ...) @quic_raise_non_normal_error(ptr noundef nonnull %3, ptr nonnull poison, i32 noundef 3838, ptr noundef nonnull @__func__.ossl_quic_accept_stream, i32 noundef 786689, ptr noundef null)
  br label %73

qc_get_effective_incoming_stream_policy.exit.thread: ; preds = %7, %22, %18
  %26 = getelementptr inbounds nuw i8, ptr %11, i64 160
  %27 = load ptr, ptr %26, align 8, !tbaa !113
  %28 = call ptr @ossl_quic_channel_get_qsm(ptr noundef %27) #12
  %29 = call ptr @ossl_quic_stream_map_peek_accept_queue(ptr noundef %28) #12
  %30 = icmp eq ptr %29, null
  br i1 %30, label %31, label %47

31:                                               ; preds = %qc_get_effective_incoming_stream_policy.exit.thread
  %.val28 = load ptr, ptr %3, align 8, !tbaa !157
  %32 = call i32 @ossl_quic_obj_blocking(ptr noundef %.val28) #12
  %.not23 = icmp ne i32 %32, 0
  %33 = and i64 %1, 1
  %34 = icmp eq i64 %33, 0
  %or.cond25 = and i1 %34, %.not23
  br i1 %or.cond25, label %35, label %73

35:                                               ; preds = %31
  call void @llvm.lifetime.start.p0(i64 16, ptr nonnull %5) #12
  store ptr %3, ptr %5, align 8, !tbaa !204
  %36 = getelementptr inbounds nuw i8, ptr %5, i64 8
  store ptr null, ptr %36, align 8, !tbaa !206
  %.val29 = load ptr, ptr %3, align 8, !tbaa !157
  %37 = getelementptr i8, ptr %.val29, i64 88
  %.val29.val = load ptr, ptr %37, align 8, !tbaa !143
  call void @ossl_quic_engine_set_inhibit_tick(ptr noundef %.val29.val, i32 noundef 0) #12
  %38 = call ptr @ossl_quic_engine_get0_reactor(ptr noundef %.val29.val) #12
  %39 = call i32 @ossl_quic_reactor_block_until_pred(ptr noundef %38, ptr noundef nonnull @wait_for_incoming_stream, ptr noundef nonnull %5, i32 noundef 0) #12
  %40 = icmp eq i32 %39, 0
  br i1 %40, label %41, label %42

41:                                               ; preds = %35
  call void (ptr, ptr, i32, ptr, i32, ptr, ...) @quic_raise_non_normal_error(ptr noundef nonnull %3, ptr nonnull poison, i32 noundef 3855, ptr noundef nonnull @__func__.ossl_quic_accept_stream, i32 noundef 786691, ptr noundef null)
  br label %.thread

42:                                               ; preds = %35
  %43 = icmp slt i32 %39, 0
  %44 = load ptr, ptr %36, align 8
  %45 = icmp eq ptr %44, null
  %or.cond = select i1 %43, i1 true, i1 %45
  br i1 %or.cond, label %.thread, label %46

.thread:                                          ; preds = %41, %42
  call void @llvm.lifetime.end.p0(i64 16, ptr nonnull %5) #12
  br label %73

46:                                               ; preds = %42
  call void @llvm.lifetime.end.p0(i64 16, ptr nonnull %5) #12
  br label %47

47:                                               ; preds = %46, %qc_get_effective_incoming_stream_policy.exit.thread
  %.016 = phi ptr [ %44, %46 ], [ %29, %qc_get_effective_incoming_stream_policy.exit.thread ]
  %48 = load ptr, ptr %10, align 8, !tbaa !134
  %49 = call fastcc ptr @create_xso_from_stream(ptr noundef %48, ptr noundef nonnull %.016)
  %50 = icmp eq ptr %49, null
  br i1 %50, label %73, label %51

51:                                               ; preds = %47
  %52 = load ptr, ptr %10, align 8, !tbaa !134
  %53 = getelementptr inbounds nuw i8, ptr %52, i64 160
  %54 = load ptr, ptr %53, align 8, !tbaa !113
  %55 = call ptr @ossl_quic_channel_get_statm(ptr noundef %54) #12
  call void @ossl_statm_get_rtt_info(ptr noundef %55, ptr noundef nonnull %4) #12
  %56 = load i64, ptr %4, align 8
  call void @ossl_quic_stream_map_remove_from_accept_queue(ptr noundef %28, ptr noundef nonnull %.016, i64 %56) #12
  %57 = load ptr, ptr %10, align 8, !tbaa !134
  %58 = getelementptr inbounds nuw i8, ptr %57, i64 336
  %59 = load i16, ptr %58, align 8
  %60 = or i16 %59, 16
  store i16 %60, ptr %58, align 8
  %61 = getelementptr inbounds nuw i8, ptr %57, i64 360
  %62 = load i32, ptr %61, align 8, !tbaa !122
  %cond.i.i.i = icmp eq i32 %62, 0
  br i1 %cond.i.i.i, label %63, label %qc_touch_default_xso.exit

63:                                               ; preds = %51
  %64 = getelementptr inbounds nuw i8, ptr %57, i64 340
  %65 = load i32, ptr %64, align 4, !tbaa !116
  %66 = icmp eq i32 %65, 0
  %spec.select.i.i.i = select i1 %66, i32 1, i32 2
  br label %qc_touch_default_xso.exit

qc_touch_default_xso.exit:                        ; preds = %51, %63
  %.0.i.i.i = phi i32 [ %62, %51 ], [ %spec.select.i.i.i, %63 ]
  %67 = icmp eq i32 %.0.i.i.i, 2
  %68 = zext i1 %67 to i32
  %69 = getelementptr inbounds nuw i8, ptr %57, i64 160
  %70 = load ptr, ptr %69, align 8, !tbaa !113
  %71 = getelementptr inbounds nuw i8, ptr %57, i64 368
  %72 = load i64, ptr %71, align 8, !tbaa !125
  call void @ossl_quic_channel_set_incoming_stream_auto_reject(ptr noundef %70, i32 noundef %68, i64 noundef %72) #12
  br label %73

73:                                               ; preds = %.thread, %47, %31, %qc_touch_default_xso.exit, %qc_get_effective_incoming_stream_policy.exit.thread32
  %.017 = phi ptr [ null, %qc_get_effective_incoming_stream_policy.exit.thread32 ], [ null, %47 ], [ %49, %qc_touch_default_xso.exit ], [ null, %31 ], [ null, %.thread ]
  %.val30 = load ptr, ptr %3, align 8, !tbaa !157
  %74 = getelementptr i8, ptr %.val30, i64 88
  %.val30.val = load ptr, ptr %74, align 8, !tbaa !143
  %75 = call ptr @ossl_quic_engine_get0_mutex(ptr noundef %.val30.val) #12
  call void @ossl_crypto_mutex_unlock(ptr noundef %75) #12
  br label %76

76:                                               ; preds = %2, %73
  %.015 = phi ptr [ %.017, %73 ], [ null, %2 ]
  call void @llvm.lifetime.end.p0(i64 32, ptr nonnull %4) #12
  call void @llvm.lifetime.end.p0(i64 56, ptr nonnull %3) #12
  ret ptr %.015
}